; Function Attrs: mustprogress nofree norecurse nosync nounwind willreturn memory(readwrite, inaccessiblemem: none) uwtable
define dso_local noundef zeroext i1 @_ZN4Luau15BytecodeBuilder10patchSkipCEmm(ptr noundef nonnull readonly align 8 captures(none) dereferenceable(840) %0, i64 noundef %1, i64 noundef %2) local_unnamed_addr #14 align 2 {
  %4 = trunc i64 %2 to i32
  %5 = trunc i64 %1 to i32
  %6 = xor i32 %5, -1
  %7 = add i32 %4, %6
  %.not = icmp ult i32 %7, 256
  br i1 %.not, label %8, label %15

8:                                                ; preds = %3
  %9 = getelementptr inbounds nuw i8, ptr %0, i64 40
  %10 = load ptr, ptr %9, align 8, !tbaa !131
  %11 = shl nuw i32 %7, 24
  %12 = getelementptr inbounds nuw i32, ptr %10, i64 %1
  %13 = load i32, ptr %12, align 4, !tbaa !19
  %14 = or i32 %13, %11
  store i32 %14, ptr %12, align 4, !tbaa !19
  br label %15

15:                                               ; preds = %3, %8
  ret i1 %.not
}